target datalayout = "e-m:e-p270:32:32-p271:32:32-p272:64:64-i64:64-i128:128-f80:128-n8:16:32:64-S128"
target triple = "x86_64-pc-linux-gnu"

%struct.jv = type { i8, i8, i16, i32, %union.anon }
%union.anon = type { ptr }

; Function Attrs: nounwind uwtable
define internal { i64, ptr } @f_getpath(ptr noundef %0, i64 %1, ptr %2, i64 %3, ptr %4) #0 {
  %6 = alloca %struct.jv, align 8
  %7 = alloca %struct.jv, align 8
  %8 = alloca %struct.jv, align 8
  %9 = alloca ptr, align 8
  %10 = alloca %struct.jv, align 8
  %11 = alloca %struct.jv, align 8
  %12 = alloca %struct.jv, align 8
  %13 = getelementptr inbounds nuw { i64, ptr }, ptr %7, i32 0, i32 0
  store i64 %1, ptr %13, align 8
  %14 = getelementptr inbounds nuw { i64, ptr }, ptr %7, i32 0, i32 1
  store ptr %2, ptr %14, align 8
  %15 = getelementptr inbounds nuw { i64, ptr }, ptr %8, i32 0, i32 0
  store i64 %3, ptr %15, align 8
  %16 = getelementptr inbounds nuw { i64, ptr }, ptr %8, i32 0, i32 1
  store ptr %4, ptr %16, align 8
  store ptr %0, ptr %9, align 8, !tbaa !25
  %17 = load ptr, ptr %9, align 8, !tbaa !25
  %18 = getelementptr inbounds nuw { i64, ptr }, ptr %7, i32 0, i32 0
  %19 = load i64, ptr %18, align 8
  %20 = getelementptr inbounds nuw { i64, ptr }, ptr %7, i32 0, i32 1
  %21 = load ptr, ptr %20, align 8
  %22 = call { i64, ptr } @jv_copy(i64 %19, ptr %21)
  %23 = getelementptr inbounds nuw { i64, ptr }, ptr %11, i32 0, i32 0
  %24 = extractvalue { i64, ptr } %22, 0
  store i64 %24, ptr %23, align 8
  %25 = getelementptr inbounds nuw { i64, ptr }, ptr %11, i32 0, i32 1
  %26 = extractvalue { i64, ptr } %22, 1
  store ptr %26, ptr %25, align 8
  %27 = getelementptr inbounds nuw { i64, ptr }, ptr %8, i32 0, i32 0
  %28 = load i64, ptr %27, align 8
  %29 = getelementptr inbounds nuw { i64, ptr }, ptr %8, i32 0, i32 1
  %30 = load ptr, ptr %29, align 8
  %31 = call { i64, ptr } @jv_copy(i64 %28, ptr %30)
  %32 = getelementptr inbounds nuw { i64, ptr }, ptr %12, i32 0, i32 0
  %33 = extractvalue { i64, ptr } %31, 0
  store i64 %33, ptr %32, align 8
  %34 = getelementptr inbounds nuw { i64, ptr }, ptr %12, i32 0, i32 1
  %35 = extractvalue { i64, ptr } %31, 1
  store ptr %35, ptr %34, align 8
  %36 = getelementptr inbounds nuw { i64, ptr }, ptr %11, i32 0, i32 0
  %37 = load i64, ptr %36, align 8
  %38 = getelementptr inbounds nuw { i64, ptr }, ptr %11, i32 0, i32 1
  %39 = load ptr, ptr %38, align 8
  %40 = getelementptr inbounds nuw { i64, ptr }, ptr %12, i32 0, i32 0
  %41 = load i64, ptr %40, align 8
  %42 = getelementptr inbounds nuw { i64, ptr }, ptr %12, i32 0, i32 1
  %43 = load ptr, ptr %42, align 8
  %44 = call { i64, ptr } @jv_getpath(i64 %37, ptr %39, i64 %41, ptr %43)
  %45 = getelementptr inbounds nuw { i64, ptr }, ptr %10, i32 0, i32 0
  %46 = extractvalue { i64, ptr } %44, 0
  store i64 %46, ptr %45, align 8
  %47 = getelementptr inbounds nuw { i64, ptr }, ptr %10, i32 0, i32 1
  %48 = extractvalue { i64, ptr } %44, 1
  store ptr %48, ptr %47, align 8
  %49 = getelementptr inbounds nuw { i64, ptr }, ptr %7, i32 0, i32 0
  %50 = load i64, ptr %49, align 8
  %51 = getelementptr inbounds nuw { i64, ptr }, ptr %7, i32 0, i32 1
  %52 = load ptr, ptr %51, align 8
  %53 = getelementptr inbounds nuw { i64, ptr }, ptr %8, i32 0, i32 0
  %54 = load i64, ptr %53, align 8
  %55 = getelementptr inbounds nuw { i64, ptr }, ptr %8, i32 0, i32 1
  %56 = load ptr, ptr %55, align 8
  %57 = call { i64, ptr } @_jq_path_append(ptr noundef %17, i64 %50, ptr %52, i64 %54, ptr %56, ptr noundef byval(%struct.jv) align 8 %10)
  %58 = getelementptr inbounds nuw { i64, ptr }, ptr %6, i32 0, i32 0
  %59 = extractvalue { i64, ptr } %57, 0
  store i64 %59, ptr %58, align 8
  %60 = getelementptr inbounds nuw { i64, ptr }, ptr %6, i32 0, i32 1
  %61 = extractvalue { i64, ptr } %57, 1
  store ptr %61, ptr %60, align 8
  %62 = load { i64, ptr }, ptr %6, align 8
  ret { i64, ptr } %62
}