; Function Attrs: nounwind uwtable
define internal { i64, ptr } @f_getpath(ptr noundef %0, i64 %1, ptr %2, i64 %3, ptr %4) #0 {
  %6 = alloca %struct.jv, align 8
  %7 = tail call { i64, ptr } @jv_copy(i64 %1, ptr %2) #14
  %8 = extractvalue { i64, ptr } %7, 0
  %9 = extractvalue { i64, ptr } %7, 1
  %10 = tail call { i64, ptr } @jv_copy(i64 %3, ptr %4) #14
  %11 = extractvalue { i64, ptr } %10, 0
  %12 = extractvalue { i64, ptr } %10, 1
  %13 = tail call { i64, ptr } @jv_getpath(i64 %8, ptr %9, i64 %11, ptr %12) #14
  %14 = extractvalue { i64, ptr } %13, 0
  store i64 %14, ptr %6, align 8
  %15 = getelementptr inbounds nuw i8, ptr %6, i64 8
  %16 = extractvalue { i64, ptr } %13, 1
  store ptr %16, ptr %15, align 8
  %17 = tail call { i64, ptr } @_jq_path_append(ptr noundef %0, i64 %1, ptr %2, i64 %3, ptr %4, ptr noundef nonnull byval(%struct.jv) align 8 %6) #14
  ret { i64, ptr } %17
}